target datalayout = "e-m:e-p270:32:32-p271:32:32-p272:64:64-i64:64-i128:128-f80:128-n8:16:32:64-S128"
target triple = "x86_64-pc-linux-gnu"

%struct.mbedtls_psa_cipher_operation_t = type { i32, i8, i8, %union.anon }
%union.anon = type { %struct.mbedtls_cipher_context_t }
%struct.mbedtls_cipher_context_t = type { ptr, i32, i32, ptr, ptr, [16 x i8], i64, [16 x i8], i64, ptr, ptr }

; Function Attrs: nounwind uwtable
define hidden i32 @mbedtls_psa_cipher_abort(ptr noundef %0) #0 {
  %2 = alloca i32, align 4
  %3 = alloca ptr, align 8
  store ptr %0, ptr %3, align 8, !tbaa !12
  %4 = load ptr, ptr %3, align 8, !tbaa !12
  %5 = getelementptr inbounds nuw %struct.mbedtls_psa_cipher_operation_t, ptr %4, i32 0, i32 0
  %6 = load i32, ptr %5, align 8, !tbaa !24
  %7 = and i32 %6, 2130706432
  %8 = icmp eq i32 %7, 67108864
  br i1 %8, label %10, label %9

9:                                                ; preds = %1
  store i32 -137, ptr %2, align 4
  br label %13

10:                                               ; preds = %1
  %11 = load ptr, ptr %3, align 8, !tbaa !12
  %12 = getelementptr inbounds nuw %struct.mbedtls_psa_cipher_operation_t, ptr %11, i32 0, i32 3
  call void @mbedtls_cipher_free(ptr noundef %12)
  store i32 0, ptr %2, align 4
  br label %13

13:                                               ; preds = %10, %9
  %14 = load i32, ptr %2, align 4
  ret i32 %14
}

; Function Attrs: nounwind uwtable
define hidden i32 @mbedtls_psa_cipher_finish(ptr noundef %0, ptr noundef %1, i64 noundef %2, ptr noundef %3) #0 {
  %5 = alloca ptr, align 8
  %6 = alloca ptr, align 8
  %7 = alloca i64, align 8
  %8 = alloca ptr, align 8
  %9 = alloca i32, align 4
  %10 = alloca [16 x i8], align 16
  store ptr %0, ptr %5, align 8, !tbaa !12
  store ptr %1, ptr %6, align 8, !tbaa !17
  store i64 %2, ptr %7, align 8, !tbaa !13
  store ptr %3, ptr %8, align 8, !tbaa !9
  call void @llvm.lifetime.start.p0(i64 4, ptr %9) #7
  store i32 -132, ptr %9, align 4, !tbaa !3
  call void @llvm.lifetime.start.p0(i64 16, ptr %10) #7
  %11 = load ptr, ptr %5, align 8, !tbaa !12
  %12 = getelementptr inbounds nuw %struct.mbedtls_psa_cipher_operation_t, ptr %11, i32 0, i32 3
  %13 = getelementptr inbounds nuw %struct.mbedtls_cipher_context_t, ptr %12, i32 0, i32 6
  %14 = load i64, ptr %13, align 8, !tbaa !29
  %15 = icmp ne i64 %14, 0
  br i1 %15, label %16, label %28

16:                                               ; preds = %4
  %17 = load ptr, ptr %5, align 8, !tbaa !12
  %18 = getelementptr inbounds nuw %struct.mbedtls_psa_cipher_operation_t, ptr %17, i32 0, i32 0
  %19 = load i32, ptr %18, align 8, !tbaa !24
  %20 = icmp eq i32 %19, 71320576
  br i1 %20, label %26, label %21

21:                                               ; preds = %16
  %22 = load ptr, ptr %5, align 8, !tbaa !12
  %23 = getelementptr inbounds nuw %struct.mbedtls_psa_cipher_operation_t, ptr %22, i32 0, i32 0
  %24 = load i32, ptr %23, align 8, !tbaa !24
  %25 = icmp eq i32 %24, 71319552
  br i1 %25, label %26, label %27

26:                                               ; preds = %21, %16
  store i32 -135, ptr %9, align 4, !tbaa !3
  br label %56

27:                                               ; preds = %21
  br label %28

28:                                               ; preds = %27, %4
  %29 = load ptr, ptr %5, align 8, !tbaa !12
  %30 = getelementptr inbounds nuw %struct.mbedtls_psa_cipher_operation_t, ptr %29, i32 0, i32 3
  %31 = getelementptr inbounds [16 x i8], ptr %10, i64 0, i64 0
  %32 = load ptr, ptr %8, align 8, !tbaa !9
  %33 = call i32 @mbedtls_cipher_finish(ptr noundef %30, ptr noundef %31, ptr noundef %32)
  %34 = call i32 @mbedtls_to_psa_error(i32 noundef %33)
  store i32 %34, ptr %9, align 4, !tbaa !3
  %35 = load i32, ptr %9, align 4, !tbaa !3
  %36 = icmp ne i32 %35, 0
  br i1 %36, label %37, label %38

37:                                               ; preds = %28
  br label %56

38:                                               ; preds = %28
  %39 = load ptr, ptr %8, align 8, !tbaa !9
  %40 = load i64, ptr %39, align 8, !tbaa !13
  %41 = icmp eq i64 %40, 0
  br i1 %41, label %42, label %43

42:                                               ; preds = %38
  br label %55

43:                                               ; preds = %38
  %44 = load i64, ptr %7, align 8, !tbaa !13
  %45 = load ptr, ptr %8, align 8, !tbaa !9
  %46 = load i64, ptr %45, align 8, !tbaa !13
  %47 = icmp uge i64 %44, %46
  br i1 %47, label %48, label %53

48:                                               ; preds = %43
  %49 = load ptr, ptr %6, align 8, !tbaa !17
  %50 = getelementptr inbounds [16 x i8], ptr %10, i64 0, i64 0
  %51 = load ptr, ptr %8, align 8, !tbaa !9
  %52 = load i64, ptr %51, align 8, !tbaa !13
  call void @llvm.memcpy.p0.p0.i64(ptr align 1 %49, ptr align 16 %50, i64 %52, i1 false)
  br label %54

53:                                               ; preds = %43
  store i32 -138, ptr %9, align 4, !tbaa !3
  br label %54

54:                                               ; preds = %53, %48
  br label %55

55:                                               ; preds = %54, %42
  br label %56

56:                                               ; preds = %55, %37, %26
  %57 = getelementptr inbounds [16 x i8], ptr %10, i64 0, i64 0
  call void @mbedtls_platform_zeroize(ptr noundef %57, i64 noundef 16)
  %58 = load i32, ptr %9, align 4, !tbaa !3
  call void @llvm.lifetime.end.p0(i64 16, ptr %10) #7
  call void @llvm.lifetime.end.p0(i64 4, ptr %9) #7
  ret i32 %58
}

; Function Attrs: inlinehint nounwind uwtable
define internal ptr @mbedtls_buffer_offset(ptr noundef %0, i64 noundef %1) #5 {
  %3 = alloca ptr, align 8
  %4 = alloca i64, align 8
  store ptr %0, ptr %3, align 8, !tbaa !17
  store i64 %1, ptr %4, align 8, !tbaa !13
  %5 = load ptr, ptr %3, align 8, !tbaa !17
  %6 = icmp eq ptr %5, null
  br i1 %6, label %7, label %8

7:                                                ; preds = %2
  br label %12

8:                                                ; preds = %2
  %9 = load ptr, ptr %3, align 8, !tbaa !17
  %10 = load i64, ptr %4, align 8, !tbaa !13
  %11 = getelementptr inbounds nuw i8, ptr %9, i64 %10
  br label %12

12:                                               ; preds = %8, %7
  %13 = phi ptr [ null, %7 ], [ %11, %8 ]
  ret ptr %13
}

; Function Attrs: inlinehint nounwind uwtable
define internal ptr @mbedtls_buffer_offset_const(ptr noundef %0, i64 noundef %1) #5 {
  %3 = alloca ptr, align 8
  %4 = alloca i64, align 8
  store ptr %0, ptr %3, align 8, !tbaa !17
  store i64 %1, ptr %4, align 8, !tbaa !13
  %5 = load ptr, ptr %3, align 8, !tbaa !17
  %6 = icmp eq ptr %5, null
  br i1 %6, label %7, label %8

7:                                                ; preds = %2
  br label %12

8:                                                ; preds = %2
  %9 = load ptr, ptr %3, align 8, !tbaa !17
  %10 = load i64, ptr %4, align 8, !tbaa !13
  %11 = getelementptr inbounds nuw i8, ptr %9, i64 %10
  br label %12

12:                                               ; preds = %8, %7
  %13 = phi ptr [ null, %7 ], [ %11, %8 ]
  ret ptr %13
}

; Function Attrs: nounwind uwtable
define hidden i32 @mbedtls_psa_cipher_set_iv(ptr noundef %0, ptr noundef %1, i64 noundef %2) #0 {
  %4 = alloca i32, align 4
  %5 = alloca ptr, align 8
  %6 = alloca ptr, align 8
  %7 = alloca i64, align 8
  store ptr %0, ptr %5, align 8, !tbaa !12
  store ptr %1, ptr %6, align 8, !tbaa !17
  store i64 %2, ptr %7, align 8, !tbaa !13
  %8 = load i64, ptr %7, align 8, !tbaa !13
  %9 = load ptr, ptr %5, align 8, !tbaa !12
  %10 = getelementptr inbounds nuw %struct.mbedtls_psa_cipher_operation_t, ptr %9, i32 0, i32 1
  %11 = load i8, ptr %10, align 4, !tbaa !28
  %12 = zext i8 %11 to i64
  %13 = icmp ne i64 %8, %12
  br i1 %13, label %14, label %15

14:                                               ; preds = %3
  store i32 -135, ptr %4, align 4
  br label %22

15:                                               ; preds = %3
  %16 = load ptr, ptr %5, align 8, !tbaa !12
  %17 = getelementptr inbounds nuw %struct.mbedtls_psa_cipher_operation_t, ptr %16, i32 0, i32 3
  %18 = load ptr, ptr %6, align 8, !tbaa !17
  %19 = load i64, ptr %7, align 8, !tbaa !13
  %20 = call i32 @mbedtls_cipher_set_iv(ptr noundef %17, ptr noundef %18, i64 noundef %19)
  %21 = call i32 @mbedtls_to_psa_error(i32 noundef %20)
  store i32 %21, ptr %4, align 4
  br label %22

22:                                               ; preds = %15, %14
  %23 = load i32, ptr %4, align 4
  ret i32 %23
}

; Function Attrs: nounwind uwtable
define hidden i32 @mbedtls_psa_cipher_decrypt_setup(ptr noundef %0, ptr noundef %1, ptr noundef %2, i64 noundef %3, i32 noundef %4) #0 {
  %6 = alloca ptr, align 8
  %7 = alloca ptr, align 8
  %8 = alloca ptr, align 8
  %9 = alloca i64, align 8
  %10 = alloca i32, align 4
  store ptr %0, ptr %6, align 8, !tbaa !12
  store ptr %1, ptr %7, align 8, !tbaa !15
  store ptr %2, ptr %8, align 8, !tbaa !17
  store i64 %3, ptr %9, align 8, !tbaa !13
  store i32 %4, ptr %10, align 4, !tbaa !3
  %11 = load ptr, ptr %6, align 8, !tbaa !12
  %12 = load ptr, ptr %7, align 8, !tbaa !15
  %13 = load ptr, ptr %8, align 8, !tbaa !17
  %14 = load i64, ptr %9, align 8, !tbaa !13
  %15 = load i32, ptr %10, align 4, !tbaa !3
  %16 = call i32 @psa_cipher_setup(ptr noundef %11, ptr noundef %12, ptr noundef %13, i64 noundef %14, i32 noundef %15, i32 noundef 0)
  ret i32 %16
}

; Function Attrs: nounwind uwtable
define hidden i32 @mbedtls_psa_cipher_decrypt(ptr noundef %0, ptr noundef %1, i64 noundef %2, i32 noundef %3, ptr noundef %4, i64 noundef %5, ptr noundef %6, i64 noundef %7, ptr noundef %8) #0 {
  %10 = alloca ptr, align 8
  %11 = alloca ptr, align 8
  %12 = alloca i64, align 8
  %13 = alloca i32, align 4
  %14 = alloca ptr, align 8
  %15 = alloca i64, align 8
  %16 = alloca ptr, align 8
  %17 = alloca i64, align 8
  %18 = alloca ptr, align 8
  %19 = alloca i32, align 4
  %20 = alloca %struct.mbedtls_psa_cipher_operation_t, align 8
  %21 = alloca i64, align 8
  %22 = alloca i64, align 8
  store ptr %0, ptr %10, align 8, !tbaa !15
  store ptr %1, ptr %11, align 8, !tbaa !17
  store i64 %2, ptr %12, align 8, !tbaa !13
  store i32 %3, ptr %13, align 4, !tbaa !3
  store ptr %4, ptr %14, align 8, !tbaa !17
  store i64 %5, ptr %15, align 8, !tbaa !13
  store ptr %6, ptr %16, align 8, !tbaa !17
  store i64 %7, ptr %17, align 8, !tbaa !13
  store ptr %8, ptr %18, align 8, !tbaa !9
  call void @llvm.lifetime.start.p0(i64 4, ptr %19) #7
  store i32 -151, ptr %19, align 4, !tbaa !3
  call void @llvm.lifetime.start.p0(i64 104, ptr %20) #7
  call void @llvm.memset.p0.i64(ptr align 8 %20, i8 0, i64 104, i1 false)
  call void @llvm.lifetime.start.p0(i64 8, ptr %21) #7
  call void @llvm.lifetime.start.p0(i64 8, ptr %22) #7
  %23 = load ptr, ptr %10, align 8, !tbaa !15
  %24 = load ptr, ptr %11, align 8, !tbaa !17
  %25 = load i64, ptr %12, align 8, !tbaa !13
  %26 = load i32, ptr %13, align 4, !tbaa !3
  %27 = call i32 @mbedtls_psa_cipher_decrypt_setup(ptr noundef %20, ptr noundef %23, ptr noundef %24, i64 noundef %25, i32 noundef %26)
  store i32 %27, ptr %19, align 4, !tbaa !3
  %28 = load i32, ptr %19, align 4, !tbaa !3
  %29 = icmp ne i32 %28, 0
  br i1 %29, label %30, label %31

30:                                               ; preds = %9
  br label %80

31:                                               ; preds = %9
  %32 = getelementptr inbounds nuw %struct.mbedtls_psa_cipher_operation_t, ptr %20, i32 0, i32 1
  %33 = load i8, ptr %32, align 4, !tbaa !28
  %34 = zext i8 %33 to i32
  %35 = icmp sgt i32 %34, 0
  br i1 %35, label %36, label %46

36:                                               ; preds = %31
  %37 = load ptr, ptr %14, align 8, !tbaa !17
  %38 = getelementptr inbounds nuw %struct.mbedtls_psa_cipher_operation_t, ptr %20, i32 0, i32 1
  %39 = load i8, ptr %38, align 4, !tbaa !28
  %40 = zext i8 %39 to i64
  %41 = call i32 @mbedtls_psa_cipher_set_iv(ptr noundef %20, ptr noundef %37, i64 noundef %40)
  store i32 %41, ptr %19, align 4, !tbaa !3
  %42 = load i32, ptr %19, align 4, !tbaa !3
  %43 = icmp ne i32 %42, 0
  br i1 %43, label %44, label %45

44:                                               ; preds = %36
  br label %80

45:                                               ; preds = %36
  br label %46

46:                                               ; preds = %45, %31
  %47 = load ptr, ptr %14, align 8, !tbaa !17
  %48 = getelementptr inbounds nuw %struct.mbedtls_psa_cipher_operation_t, ptr %20, i32 0, i32 1
  %49 = load i8, ptr %48, align 4, !tbaa !28
  %50 = zext i8 %49 to i64
  %51 = call ptr @mbedtls_buffer_offset_const(ptr noundef %47, i64 noundef %50)
  %52 = load i64, ptr %15, align 8, !tbaa !13
  %53 = getelementptr inbounds nuw %struct.mbedtls_psa_cipher_operation_t, ptr %20, i32 0, i32 1
  %54 = load i8, ptr %53, align 4, !tbaa !28
  %55 = zext i8 %54 to i64
  %56 = sub i64 %52, %55
  %57 = load ptr, ptr %16, align 8, !tbaa !17
  %58 = load i64, ptr %17, align 8, !tbaa !13
  %59 = call i32 @mbedtls_psa_cipher_update(ptr noundef %20, ptr noundef %51, i64 noundef %56, ptr noundef %57, i64 noundef %58, ptr noundef %21)
  store i32 %59, ptr %19, align 4, !tbaa !3
  %60 = load i32, ptr %19, align 4, !tbaa !3
  %61 = icmp ne i32 %60, 0
  br i1 %61, label %62, label %63

62:                                               ; preds = %46
  br label %80

63:                                               ; preds = %46
  %64 = load i64, ptr %21, align 8, !tbaa !13
  store i64 %64, ptr %22, align 8, !tbaa !13
  %65 = load ptr, ptr %16, align 8, !tbaa !17
  %66 = load i64, ptr %22, align 8, !tbaa !13
  %67 = call ptr @mbedtls_buffer_offset(ptr noundef %65, i64 noundef %66)
  %68 = load i64, ptr %17, align 8, !tbaa !13
  %69 = load i64, ptr %22, align 8, !tbaa !13
  %70 = sub i64 %68, %69
  %71 = call i32 @mbedtls_psa_cipher_finish(ptr noundef %20, ptr noundef %67, i64 noundef %70, ptr noundef %21)
  store i32 %71, ptr %19, align 4, !tbaa !3
  %72 = load i32, ptr %19, align 4, !tbaa !3
  %73 = icmp ne i32 %72, 0
  br i1 %73, label %74, label %75

74:                                               ; preds = %63
  br label %80

75:                                               ; preds = %63
  %76 = load i64, ptr %22, align 8, !tbaa !13
  %77 = load i64, ptr %21, align 8, !tbaa !13
  %78 = add i64 %76, %77
  %79 = load ptr, ptr %18, align 8, !tbaa !9
  store i64 %78, ptr %79, align 8, !tbaa !13
  br label %80

80:                                               ; preds = %75, %74, %62, %44, %30
  %81 = load i32, ptr %19, align 4, !tbaa !3
  %82 = icmp eq i32 %81, 0
  br i1 %82, label %83, label %85

83:                                               ; preds = %80
  %84 = call i32 @mbedtls_psa_cipher_abort(ptr noundef %20)
  store i32 %84, ptr %19, align 4, !tbaa !3
  br label %87

85:                                               ; preds = %80
  %86 = call i32 @mbedtls_psa_cipher_abort(ptr noundef %20)
  br label %87

87:                                               ; preds = %85, %83
  %88 = load i32, ptr %19, align 4, !tbaa !3
  call void @llvm.lifetime.end.p0(i64 8, ptr %22) #7
  call void @llvm.lifetime.end.p0(i64 8, ptr %21) #7
  call void @llvm.lifetime.end.p0(i64 104, ptr %20) #7
  call void @llvm.lifetime.end.p0(i64 4, ptr %19) #7
  ret i32 %88
}