; Function Attrs: nounwind uwtable
define hidden i32 @mbedtls_psa_cipher_decrypt(ptr noundef readonly captures(none) %0, ptr noundef %1, i64 noundef %2, i32 noundef %3, ptr noundef %4, i64 noundef %5, ptr noundef %6, i64 noundef %7, ptr noundef writeonly captures(none) %8) local_unnamed_addr #2 {
  %10 = alloca [16 x i8], align 16
  %11 = alloca %struct.mbedtls_psa_cipher_operation_t, align 8
  %12 = alloca i64, align 8
  call void @llvm.lifetime.start.p0(i64 104, ptr nonnull %11) #8
  call void @llvm.memset.p0.i64(ptr noundef nonnull align 8 dereferenceable(104) %11, i8 0, i64 104, i1 false)
  call void @llvm.lifetime.start.p0(i64 8, ptr nonnull %12) #8
  %13 = call fastcc i32 @psa_cipher_setup(ptr noundef nonnull %11, ptr noundef readonly %0, ptr noundef %1, i32 noundef %3, i32 noundef 0)
  %.not = icmp eq i32 %13, 0
  br i1 %.not, label %14, label %51

14:                                               ; preds = %9
  %15 = getelementptr inbounds nuw i8, ptr %11, i64 4
  %16 = load i8, ptr %15, align 4, !tbaa !17
  %.not25 = icmp eq i8 %16, 0
  br i1 %.not25, label %22, label %mbedtls_psa_cipher_set_iv.exit

mbedtls_psa_cipher_set_iv.exit:                   ; preds = %14
  %17 = zext i8 %16 to i64
  %18 = getelementptr inbounds nuw i8, ptr %11, i64 8
  %19 = call i32 @mbedtls_cipher_set_iv(ptr noundef nonnull %18, ptr noundef %4, i64 noundef %17) #8
  %20 = call i32 @mbedtls_to_psa_error(i32 noundef %19) #8
  %.not26 = icmp eq i32 %20, 0
  br i1 %.not26, label %mbedtls_psa_cipher_set_iv.exit._crit_edge, label %51

mbedtls_psa_cipher_set_iv.exit._crit_edge:        ; preds = %mbedtls_psa_cipher_set_iv.exit
  %.pre = load i8, ptr %15, align 4, !tbaa !17
  %21 = zext i8 %.pre to i64
  br label %22

22:                                               ; preds = %mbedtls_psa_cipher_set_iv.exit._crit_edge, %14
  %23 = phi i64 [ %21, %mbedtls_psa_cipher_set_iv.exit._crit_edge ], [ 0, %14 ]
  %24 = icmp eq ptr %4, null
  %25 = getelementptr inbounds nuw i8, ptr %4, i64 %23
  %26 = select i1 %24, ptr null, ptr %25
  %27 = sub i64 %5, %23
  %28 = call i32 @mbedtls_psa_cipher_update(ptr noundef nonnull %11, ptr noundef %26, i64 noundef %27, ptr noundef %6, i64 noundef %7, ptr noundef nonnull %12)
  %.not27 = icmp eq i32 %28, 0
  br i1 %.not27, label %29, label %51

29:                                               ; preds = %22
  %30 = load i64, ptr %12, align 8, !tbaa !7
  %31 = icmp eq ptr %6, null
  %32 = getelementptr inbounds nuw i8, ptr %6, i64 %30
  %33 = select i1 %31, ptr null, ptr %32
  %34 = sub i64 %7, %30
  call void @llvm.lifetime.start.p0(i64 16, ptr nonnull %10) #8
  %35 = getelementptr inbounds nuw i8, ptr %11, i64 8
  %36 = getelementptr inbounds nuw i8, ptr %11, i64 56
  %37 = load i64, ptr %36, align 8, !tbaa !18
  %.not.i29 = icmp eq i64 %37, 0
  br i1 %.not.i29, label %40, label %38

38:                                               ; preds = %29
  %39 = load i32, ptr %11, align 8, !tbaa !13
  switch i32 %39, label %40 [
    i32 71320576, label %mbedtls_psa_cipher_finish.exit.thread
    i32 71319552, label %mbedtls_psa_cipher_finish.exit.thread
  ]

40:                                               ; preds = %38, %29
  %41 = call i32 @mbedtls_cipher_finish(ptr noundef nonnull %35, ptr noundef nonnull %10, ptr noundef nonnull %12) #8
  %42 = call i32 @mbedtls_to_psa_error(i32 noundef %41) #8
  %.not14.i = icmp eq i32 %42, 0
  br i1 %.not14.i, label %43, label %mbedtls_psa_cipher_finish.exit.thread

43:                                               ; preds = %40
  %44 = load i64, ptr %12, align 8, !tbaa !7
  %45 = icmp eq i64 %44, 0
  br i1 %45, label %48, label %46

46:                                               ; preds = %43
  %.not15.i = icmp ult i64 %34, %44
  br i1 %.not15.i, label %mbedtls_psa_cipher_finish.exit.thread, label %47

47:                                               ; preds = %46
  call void @llvm.memcpy.p0.p0.i64(ptr align 1 %33, ptr nonnull align 16 %10, i64 %44, i1 false)
  br label %48

mbedtls_psa_cipher_finish.exit.thread:            ; preds = %40, %38, %38, %46
  %.0.i30.ph = phi i32 [ -138, %46 ], [ -135, %38 ], [ -135, %38 ], [ %42, %40 ]
  call void @mbedtls_platform_zeroize(ptr noundef nonnull %10, i64 noundef 16) #8
  call void @llvm.lifetime.end.p0(i64 16, ptr nonnull %10) #8
  br label %51

48:                                               ; preds = %47, %43
  call void @mbedtls_platform_zeroize(ptr noundef nonnull %10, i64 noundef 16) #8
  call void @llvm.lifetime.end.p0(i64 16, ptr nonnull %10) #8
  %49 = load i64, ptr %12, align 8, !tbaa !7
  %50 = add i64 %49, %30
  store i64 %50, ptr %8, align 8, !tbaa !7
  br label %51

51:                                               ; preds = %mbedtls_psa_cipher_finish.exit.thread, %22, %mbedtls_psa_cipher_set_iv.exit, %9, %48
  %.0 = phi i32 [ %13, %9 ], [ %20, %mbedtls_psa_cipher_set_iv.exit ], [ %28, %22 ], [ 0, %48 ], [ %.0.i30.ph, %mbedtls_psa_cipher_finish.exit.thread ]
  %52 = load i32, ptr %11, align 8, !tbaa !13
  %53 = and i32 %52, 2130706432
  %54 = icmp eq i32 %53, 67108864
  br i1 %54, label %55, label %mbedtls_psa_cipher_abort.exit

55:                                               ; preds = %51
  %56 = getelementptr inbounds nuw i8, ptr %11, i64 8
  call void @mbedtls_cipher_free(ptr noundef nonnull %56) #8
  br label %mbedtls_psa_cipher_abort.exit

mbedtls_psa_cipher_abort.exit:                    ; preds = %51, %55
  %.0.i31 = phi i32 [ 0, %55 ], [ -137, %51 ]
  %57 = icmp eq i32 %.0, 0
  %..0 = select i1 %57, i32 %.0.i31, i32 %.0
  call void @llvm.lifetime.end.p0(i64 8, ptr nonnull %12) #8
  call void @llvm.lifetime.end.p0(i64 104, ptr nonnull %11) #8
  ret i32 %..0
}